
Discarded input sections

 .text          0x00000000        0x0 ./Sources/main.o
 .data          0x00000000        0x0 ./Sources/main.o
 .bss           0x00000000        0x0 ./Sources/main.o
 .text          0x00000000        0x0 ./Sources/kinetis_sysinit.o
 .data          0x00000000        0x0 ./Sources/kinetis_sysinit.o
 .bss           0x00000000        0x0 ./Sources/kinetis_sysinit.o

Memory Configuration

Name             Origin             Length             Attributes
m_flashProg      0x1fffff00         0x00000400         xr
*default*        0x00000000         0xffffffff

Linker script and memory map

LOAD ./Sources/main.o
LOAD ./Sources/kinetis_sysinit.o
START GROUP
LOAD c:/apps/freescale/cw mcu v10.6/cross_tools/arm-none-eabi-gcc-4_7_3/bin/../lib/gcc/arm-none-eabi/4.7.3/../../../../arm-none-eabi/lib/armv6-m\libc.a
LOAD c:/apps/freescale/cw mcu v10.6/cross_tools/arm-none-eabi-gcc-4_7_3/bin/../lib/gcc/arm-none-eabi/4.7.3/../../../../arm-none-eabi/lib/armv6-m\libm.a
LOAD c:/apps/freescale/cw mcu v10.6/cross_tools/arm-none-eabi-gcc-4_7_3/bin/../lib/gcc/arm-none-eabi/4.7.3/armv6-m\libgcc.a
END GROUP
                0x00000038                STACKSIZE = 0x38

.flashProg      0x1fffff00      0x380
                0x1fffff00                . = ALIGN (0x10)
                0x1fffff00                __loadAddress = .
 *(.data.__vector_table)
 .data.__vector_table
                0x1fffff00       0x10 ./Sources/kinetis_sysinit.o
                0x1fffff00                __vector_table
                0x1fffff48                . = (. + STACKSIZE)
 *fill*         0x1fffff10       0x38 00
                0x1fffff48                . = ALIGN (0x4)
                0x1fffff48                __stacktop = .
                0x1fffff48                . = ALIGN (0x4)
 *(.data.*)
 .data.gFlashProgramHeader
                0x1fffff48       0x18 ./Sources/main.o
                0x1fffff48                gFlashProgramHeader
 *(.text.*)
 .text.asm_entry
                0x1fffff60       0x10 ./Sources/main.o
                0x1fffff60                asm_entry
 .text.setErrorCode
                0x1fffff70       0x24 ./Sources/main.o
                0x1fffff70                setErrorCode
 .text.initFlash
                0x1fffff94       0x30 ./Sources/main.o
                0x1fffff94                initFlash
 .text.executeCommand
                0x1fffffc4       0x22 ./Sources/main.o
                0x1fffffc4                executeCommand
 .text.eraseFlashBlock
                0x1fffffe6       0x52 ./Sources/main.o
                0x1fffffe6                eraseFlashBlock
 .text.programRange
                0x20000038       0xc8 ./Sources/main.o
                0x20000038                programRange
 .text.verifyRange
                0x20000100       0x50 ./Sources/main.o
                0x20000100                verifyRange
 .text.eraseRange
                0x20000150       0x78 ./Sources/main.o
                0x20000150                eraseRange
 .text.blankCheckRange
                0x200001c8       0x42 ./Sources/main.o
                0x200001c8                blankCheckRange
 *fill*         0x2000020a        0x2 00
 .text.entry    0x2000020c       0x68 ./Sources/main.o
                0x2000020c                entry
 .text.isr_default
                0x20000274        0x8 ./Sources/main.o
                0x20000274                isr_default
 .text.asm_testApp
                0x2000027c        0x2 ./Sources/main.o
                0x2000027c                asm_testApp
 *(.rodata.*)
                0x20000280                . = ALIGN (0x4)
 *fill*         0x2000027e        0x2 00
OUTPUT(Kinetis-FTMRE-flash-program-gcc.elf elf32-littlearm)

.glue_7         0x20000280        0x0
 .glue_7        0x00000000        0x0 linker stubs

.glue_7t        0x20000280        0x0
 .glue_7t       0x00000000        0x0 linker stubs

.vfp11_veneer   0x20000280        0x0
 .vfp11_veneer  0x00000000        0x0 linker stubs

.v4_bx          0x20000280        0x0
 .v4_bx         0x00000000        0x0 linker stubs

.iplt           0x20000280        0x0
 .iplt          0x00000000        0x0 ./Sources/main.o

.igot.plt       0x20000280        0x0
 .igot.plt      0x00000000        0x0 ./Sources/main.o

.rel.dyn        0x20000280        0x0
 .rel.iplt      0x00000000        0x0 ./Sources/main.o

.debug_info     0x00000000      0x7b7
 .debug_info    0x00000000      0x6b7 ./Sources/main.o
 .debug_info    0x000006b7      0x100 ./Sources/kinetis_sysinit.o

.debug_abbrev   0x00000000      0x280
 .debug_abbrev  0x00000000      0x1df ./Sources/main.o
 .debug_abbrev  0x000001df       0xa1 ./Sources/kinetis_sysinit.o

.debug_loc      0x00000000      0x3bf
 .debug_loc     0x00000000      0x3bf ./Sources/main.o

.debug_aranges  0x00000000       0x90
 .debug_aranges
                0x00000000       0x78 ./Sources/main.o
 .debug_aranges
                0x00000078       0x18 ./Sources/kinetis_sysinit.o

.debug_macinfo  0x00000000    0x1d31b
 .debug_macinfo
                0x00000000     0x419c ./Sources/main.o
 .debug_macinfo
                0x0000419c    0x1917f ./Sources/kinetis_sysinit.o

.debug_line     0x00000000      0x4d1
 .debug_line    0x00000000      0x2db ./Sources/main.o
 .debug_line    0x000002db      0x1f6 ./Sources/kinetis_sysinit.o

.debug_str      0x00000000      0x4c0
 .debug_str     0x00000000      0x478 ./Sources/main.o
                                0x4b1 (size before relaxing)
 .debug_str     0x00000478       0x48 ./Sources/kinetis_sysinit.o
                                0x19e (size before relaxing)

.comment        0x00000000       0x79
 .comment       0x00000000       0x79 ./Sources/main.o
                                 0x7a (size before relaxing)
 .comment       0x00000000       0x7a ./Sources/kinetis_sysinit.o

.ARM.attributes
                0x00000000       0x31
 .ARM.attributes
                0x00000000       0x31 ./Sources/main.o
 .ARM.attributes
                0x00000031       0x31 ./Sources/kinetis_sysinit.o

.debug_frame    0x00000000      0x134
 .debug_frame   0x00000000      0x134 ./Sources/main.o
